	.section	__TEXT,__text,regular,pure_instructions
	.build_version macos, 11, 0	sdk_version 12, 1
	.file	1 "/Library/Developer/CommandLineTools/usr/lib/clang/13.0.0/include" "avxintrin.h"
	.file	2 "/Library/Developer/CommandLineTools/usr/lib/clang/13.0.0/include" "stddef.h"
	.file	3 "/Library/Developer/CommandLineTools/SDKs/MacOSX.sdk/usr/include/c++/v1" "cstddef"
	.file	4 "/Library/Developer/CommandLineTools/SDKs/MacOSX.sdk/usr/include/i386" "_types.h"
	.file	5 "/Library/Developer/CommandLineTools/SDKs/MacOSX.sdk/usr/include/sys/_types" "_size_t.h"
	.file	6 "/Library/Developer/CommandLineTools/SDKs/MacOSX.sdk/usr/include/sys/_types" "_clock_t.h"
	.file	7 "/Library/Developer/CommandLineTools/SDKs/MacOSX.sdk/usr/include/c++/v1" "ctime"
	.file	8 "/Library/Developer/CommandLineTools/SDKs/MacOSX.sdk/usr/include/sys/_types" "_time_t.h"
	.file	9 "/Library/Developer/CommandLineTools/SDKs/MacOSX.sdk/usr/include" "time.h"
	.file	10 "/Library/Developer/CommandLineTools/SDKs/MacOSX.sdk/usr/include/c++/v1" "__nullptr"
	.file	11 "/Library/Developer/CommandLineTools/SDKs/MacOSX.sdk/usr/include/c++/v1" "stddef.h"
	.file	12 "/Library/Developer/CommandLineTools/SDKs/MacOSX.sdk/usr/include/c++/v1" "cstring"
	.file	13 "/Library/Developer/CommandLineTools/SDKs/MacOSX.sdk/usr/include" "string.h"
	.file	14 "/Library/Developer/CommandLineTools/SDKs/MacOSX.sdk/usr/include/c++/v1" "string.h"
	.file	15 "/Library/Developer/CommandLineTools/SDKs/MacOSX.sdk/usr/include/sys/_types" "_int8_t.h"
	.file	16 "/Library/Developer/CommandLineTools/SDKs/MacOSX.sdk/usr/include/c++/v1" "cstdint"
	.file	17 "/Library/Developer/CommandLineTools/SDKs/MacOSX.sdk/usr/include/sys/_types" "_int16_t.h"
	.file	18 "/Library/Developer/CommandLineTools/SDKs/MacOSX.sdk/usr/include/sys/_types" "_int32_t.h"
	.file	19 "/Library/Developer/CommandLineTools/SDKs/MacOSX.sdk/usr/include/sys/_types" "_int64_t.h"
	.file	20 "/Library/Developer/CommandLineTools/SDKs/MacOSX.sdk/usr/include/_types" "_uint8_t.h"
	.file	21 "/Library/Developer/CommandLineTools/SDKs/MacOSX.sdk/usr/include/_types" "_uint16_t.h"
	.file	22 "/Library/Developer/CommandLineTools/SDKs/MacOSX.sdk/usr/include/_types" "_uint32_t.h"
	.file	23 "/Library/Developer/CommandLineTools/SDKs/MacOSX.sdk/usr/include/_types" "_uint64_t.h"
	.file	24 "/Library/Developer/CommandLineTools/SDKs/MacOSX.sdk/usr/include" "stdint.h"
	.file	25 "/Library/Developer/CommandLineTools/SDKs/MacOSX.sdk/usr/include/sys/_types" "_intptr_t.h"
	.file	26 "/Library/Developer/CommandLineTools/SDKs/MacOSX.sdk/usr/include/sys/_types" "_uintptr_t.h"
	.file	27 "/Library/Developer/CommandLineTools/SDKs/MacOSX.sdk/usr/include/_types" "_intmax_t.h"
	.file	28 "/Library/Developer/CommandLineTools/SDKs/MacOSX.sdk/usr/include/_types" "_uintmax_t.h"
	.file	29 "/Library/Developer/CommandLineTools/SDKs/MacOSX.sdk/usr/include/c++/v1" "cstdlib"
	.file	30 "/Library/Developer/CommandLineTools/SDKs/MacOSX.sdk/usr/include" "stdlib.h"
	.file	31 "/Library/Developer/CommandLineTools/SDKs/MacOSX.sdk/usr/include/malloc" "_malloc.h"
	.file	32 "/Library/Developer/CommandLineTools/SDKs/MacOSX.sdk/usr/include/c++/v1" "stdlib.h"
	.file	33 "/Library/Developer/CommandLineTools/SDKs/MacOSX.sdk/usr/include" "_stdio.h"
	.file	34 "/Library/Developer/CommandLineTools/SDKs/MacOSX.sdk/usr/include/sys" "_types.h"
	.file	35 "/Library/Developer/CommandLineTools/SDKs/MacOSX.sdk/usr/include/c++/v1" "cstdio"
	.file	36 "/Library/Developer/CommandLineTools/SDKs/MacOSX.sdk/usr/include" "stdio.h"
	.file	37 "/Library/Developer/CommandLineTools/SDKs/MacOSX.sdk/usr/include" "_ctype.h"
	.file	38 "/Library/Developer/CommandLineTools/SDKs/MacOSX.sdk/usr/include/c++/v1" "cctype"
	.file	39 "/Library/Developer/CommandLineTools/SDKs/MacOSX.sdk/usr/include/sys/_types" "_wint_t.h"
	.file	40 "/Library/Developer/CommandLineTools/SDKs/MacOSX.sdk/usr/include/c++/v1" "cwctype"
	.file	41 "/Library/Developer/CommandLineTools/SDKs/MacOSX.sdk/usr/include" "_types.h"
	.file	42 "/Library/Developer/CommandLineTools/SDKs/MacOSX.sdk/usr/include/_types" "_wctrans_t.h"
	.file	43 "/Library/Developer/CommandLineTools/SDKs/MacOSX.sdk/usr/include/_types" "_wctype_t.h"
	.file	44 "/Library/Developer/CommandLineTools/SDKs/MacOSX.sdk/usr/include" "_wctype.h"
	.file	45 "/Library/Developer/CommandLineTools/SDKs/MacOSX.sdk/usr/include" "wctype.h"
	.file	46 "/Library/Developer/CommandLineTools/SDKs/MacOSX.sdk/usr/include/sys/_types" "_mbstate_t.h"
	.file	47 "/Library/Developer/CommandLineTools/SDKs/MacOSX.sdk/usr/include/c++/v1" "cwchar"
	.file	48 "/Library/Developer/CommandLineTools/SDKs/MacOSX.sdk/usr/include" "wchar.h"
	.file	49 "/Library/Developer/CommandLineTools/SDKs/MacOSX.sdk/usr/include/c++/v1" "wchar.h"
	.file	50 "/Users/zhouzikai/Desktop/cs_research/YLab/dataflow_tryout/test_simd/4x4" "simd_os_ws5.cpp"
	.globl	__Z8binarizePfiPi               ## -- Begin function _Z8binarizePfiPi
	.p2align	4, 0x90
__Z8binarizePfiPi:                      ## @_Z8binarizePfiPi
Lfunc_begin0:
	.loc	50 11 0                         ## simd_os_ws5.cpp:11:0
	.cfi_startproc
## %bb.0:
	##DEBUG_VALUE: binarize:inputMatrix <- $rdi
	##DEBUG_VALUE: binarize:inputMatrix <- $rdi
	##DEBUG_VALUE: binarize:input_size <- $esi
	##DEBUG_VALUE: binarize:input_size <- $esi
	##DEBUG_VALUE: binarize:binarizedMatrix <- $rdx
	##DEBUG_VALUE: binarize:binarizedMatrix <- $rdx
	pushq	%rbp
	.cfi_def_cfa_offset 16
	.cfi_offset %rbp, -16
	movq	%rsp, %rbp
	.cfi_def_cfa_register %rbp
Ltmp0:
	##DEBUG_VALUE: i <- 0
	.loc	50 12 23 prologue_end           ## simd_os_ws5.cpp:12:23
	testl	%esi, %esi
Ltmp1:
	.loc	50 12 5 is_stmt 0               ## simd_os_ws5.cpp:12:5
	jle	LBB0_11
Ltmp2:
## %bb.1:
	##DEBUG_VALUE: binarize:binarizedMatrix <- $rdx
	##DEBUG_VALUE: binarize:inputMatrix <- $rdi
	##DEBUG_VALUE: binarize:input_size <- $esi
	##DEBUG_VALUE: i <- 0
	.loc	50 12 23                        ## simd_os_ws5.cpp:12:23
	movl	%esi, %r9d
Ltmp3:
	.loc	50 12 5                         ## simd_os_ws5.cpp:12:5
	cmpl	$32, %esi
	jae	LBB0_3
Ltmp4:
## %bb.2:
	##DEBUG_VALUE: binarize:binarizedMatrix <- $rdx
	##DEBUG_VALUE: binarize:inputMatrix <- $rdi
	##DEBUG_VALUE: binarize:input_size <- $esi
	##DEBUG_VALUE: i <- 0
	.loc	50 0 5                          ## simd_os_ws5.cpp:0:5
	xorl	%ecx, %ecx
	jmp	LBB0_10
Ltmp5:
LBB0_3:
	##DEBUG_VALUE: binarize:binarizedMatrix <- $rdx
	##DEBUG_VALUE: binarize:inputMatrix <- $rdi
	##DEBUG_VALUE: binarize:input_size <- $esi
	##DEBUG_VALUE: i <- 0
	.loc	50 12 5                         ## simd_os_ws5.cpp:12:5
	movl	%r9d, %ecx
	andl	$-32, %ecx
	leaq	-32(%rcx), %rax
	movq	%rax, %r8
	shrq	$5, %r8
	incq	%r8
	testq	%rax, %rax
	je	LBB0_4
Ltmp6:
## %bb.5:
	##DEBUG_VALUE: binarize:binarizedMatrix <- $rdx
	##DEBUG_VALUE: binarize:inputMatrix <- $rdi
	##DEBUG_VALUE: binarize:input_size <- $esi
	##DEBUG_VALUE: i <- 0
	movq	%r8, %rax
	andq	$-2, %rax
	negq	%rax
	xorl	%esi, %esi
Ltmp7:
	##DEBUG_VALUE: binarize:input_size <- [DW_OP_LLVM_entry_value 1] $esi
	.p2align	4, 0x90
LBB0_6:                                 ## =>This Inner Loop Header: Depth=1
	##DEBUG_VALUE: binarize:binarizedMatrix <- $rdx
	##DEBUG_VALUE: binarize:inputMatrix <- $rdi
	##DEBUG_VALUE: binarize:input_size <- [DW_OP_LLVM_entry_value 1] $esi
	##DEBUG_VALUE: i <- 0
	.loc	50 14 50 is_stmt 1              ## simd_os_ws5.cpp:14:50
	vcvttps2udq	(%rdi,%rsi,4), %ymm0
	vcvttps2udq	32(%rdi,%rsi,4), %ymm1
	vcvttps2udq	64(%rdi,%rsi,4), %ymm2
	vcvttps2udq	96(%rdi,%rsi,4), %ymm3
	.loc	50 14 65 is_stmt 0              ## simd_os_ws5.cpp:14:65
	vpsrld	$31, %ymm0, %ymm0
	vpsrld	$31, %ymm1, %ymm1
	vpsrld	$31, %ymm2, %ymm2
	vpsrld	$31, %ymm3, %ymm3
	.loc	50 14 28                        ## simd_os_ws5.cpp:14:28
	vmovdqu	%ymm0, (%rdx,%rsi,4)
	vmovdqu	%ymm1, 32(%rdx,%rsi,4)
	vmovdqu	%ymm2, 64(%rdx,%rsi,4)
	vmovdqu	%ymm3, 96(%rdx,%rsi,4)
	.loc	50 14 50                        ## simd_os_ws5.cpp:14:50
	vcvttps2udq	128(%rdi,%rsi,4), %ymm0
	vcvttps2udq	160(%rdi,%rsi,4), %ymm1
	vcvttps2udq	192(%rdi,%rsi,4), %ymm2
	vcvttps2udq	224(%rdi,%rsi,4), %ymm3
	.loc	50 14 65                        ## simd_os_ws5.cpp:14:65
	vpsrld	$31, %ymm0, %ymm0
	vpsrld	$31, %ymm1, %ymm1
	vpsrld	$31, %ymm2, %ymm2
	vpsrld	$31, %ymm3, %ymm3
	.loc	50 14 28                        ## simd_os_ws5.cpp:14:28
	vmovdqu	%ymm0, 128(%rdx,%rsi,4)
	vmovdqu	%ymm1, 160(%rdx,%rsi,4)
	vmovdqu	%ymm2, 192(%rdx,%rsi,4)
	vmovdqu	%ymm3, 224(%rdx,%rsi,4)
Ltmp8:
	.loc	50 12 38 is_stmt 1              ## simd_os_ws5.cpp:12:38
	addq	$64, %rsi
	addq	$2, %rax
	jne	LBB0_6
Ltmp9:
## %bb.7:
	##DEBUG_VALUE: binarize:binarizedMatrix <- $rdx
	##DEBUG_VALUE: binarize:inputMatrix <- $rdi
	##DEBUG_VALUE: binarize:input_size <- [DW_OP_LLVM_entry_value 1] $esi
	##DEBUG_VALUE: i <- 0
	testb	$1, %r8b
	je	LBB0_9
Ltmp10:
LBB0_8:
	##DEBUG_VALUE: binarize:binarizedMatrix <- $rdx
	##DEBUG_VALUE: binarize:inputMatrix <- $rdi
	##DEBUG_VALUE: binarize:input_size <- [DW_OP_LLVM_entry_value 1] $esi
	##DEBUG_VALUE: i <- 0
	.loc	50 14 50                        ## simd_os_ws5.cpp:14:50
	vcvttps2udq	(%rdi,%rsi,4), %ymm0
	vcvttps2udq	32(%rdi,%rsi,4), %ymm1
	vcvttps2udq	64(%rdi,%rsi,4), %ymm2
	vcvttps2udq	96(%rdi,%rsi,4), %ymm3
	.loc	50 14 65 is_stmt 0              ## simd_os_ws5.cpp:14:65
	vpsrld	$31, %ymm0, %ymm0
	vpsrld	$31, %ymm1, %ymm1
	vpsrld	$31, %ymm2, %ymm2
	vpsrld	$31, %ymm3, %ymm3
	.loc	50 14 28                        ## simd_os_ws5.cpp:14:28
	vmovdqu	%ymm0, (%rdx,%rsi,4)
	vmovdqu	%ymm1, 32(%rdx,%rsi,4)
	vmovdqu	%ymm2, 64(%rdx,%rsi,4)
	vmovdqu	%ymm3, 96(%rdx,%rsi,4)
Ltmp11:
LBB0_9:
	##DEBUG_VALUE: binarize:binarizedMatrix <- $rdx
	##DEBUG_VALUE: binarize:inputMatrix <- $rdi
	##DEBUG_VALUE: binarize:input_size <- [DW_OP_LLVM_entry_value 1] $esi
	##DEBUG_VALUE: i <- 0
	.loc	50 12 5 is_stmt 1               ## simd_os_ws5.cpp:12:5
	cmpq	%r9, %rcx
	je	LBB0_11
Ltmp12:
	.p2align	4, 0x90
LBB0_10:                                ## =>This Inner Loop Header: Depth=1
	##DEBUG_VALUE: binarize:binarizedMatrix <- $rdx
	##DEBUG_VALUE: binarize:inputMatrix <- $rdi
	##DEBUG_VALUE: i <- $rcx
	.loc	50 14 50                        ## simd_os_ws5.cpp:14:50
	vcvttss2usi	(%rdi,%rcx,4), %eax
	.loc	50 14 65 is_stmt 0              ## simd_os_ws5.cpp:14:65
	shrl	$31, %eax
	.loc	50 14 28                        ## simd_os_ws5.cpp:14:28
	movl	%eax, (%rdx,%rcx,4)
Ltmp13:
	.loc	50 12 38 is_stmt 1              ## simd_os_ws5.cpp:12:38
	incq	%rcx
Ltmp14:
	##DEBUG_VALUE: i <- $rcx
	.loc	50 12 23 is_stmt 0              ## simd_os_ws5.cpp:12:23
	cmpq	%rcx, %r9
Ltmp15:
	.loc	50 12 5                         ## simd_os_ws5.cpp:12:5
	jne	LBB0_10
Ltmp16:
LBB0_11:
	##DEBUG_VALUE: binarize:binarizedMatrix <- $rdx
	##DEBUG_VALUE: binarize:inputMatrix <- $rdi
	.loc	50 16 1 is_stmt 1               ## simd_os_ws5.cpp:16:1
	popq	%rbp
	vzeroupper
	retq
Ltmp17:
LBB0_4:
	##DEBUG_VALUE: binarize:binarizedMatrix <- $rdx
	##DEBUG_VALUE: binarize:inputMatrix <- $rdi
	##DEBUG_VALUE: binarize:input_size <- $esi
	##DEBUG_VALUE: i <- 0
	.loc	50 0 1 is_stmt 0                ## simd_os_ws5.cpp:0:1
	xorl	%esi, %esi
Ltmp18:
	##DEBUG_VALUE: binarize:input_size <- [DW_OP_LLVM_entry_value 1] $esi
	.loc	50 12 38 is_stmt 1              ## simd_os_ws5.cpp:12:38
	testb	$1, %r8b
	jne	LBB0_8
	jmp	LBB0_9
Ltmp19:
Lfunc_end0:
	.cfi_endproc
                                        ## -- End function
	.globl	__Z13xnor_popcountii            ## -- Begin function _Z13xnor_popcountii
	.p2align	4, 0x90
__Z13xnor_popcountii:                   ## @_Z13xnor_popcountii
Lfunc_begin1:
	.loc	50 19 0                         ## simd_os_ws5.cpp:19:0
	.cfi_startproc
## %bb.0:
	##DEBUG_VALUE: xnor_popcount:a <- $edi
	##DEBUG_VALUE: xnor_popcount:a <- $edi
	##DEBUG_VALUE: xnor_popcount:b <- $esi
	##DEBUG_VALUE: xnor_popcount:b <- $esi
	pushq	%rbp
	.cfi_def_cfa_offset 16
	.cfi_offset %rbp, -16
	movq	%rsp, %rbp
	.cfi_def_cfa_register %rbp
Ltmp20:
	.loc	50 20 31 prologue_end           ## simd_os_ws5.cpp:20:31
	xorl	%esi, %edi
Ltmp21:
	##DEBUG_VALUE: xnor_popcount:a <- [DW_OP_LLVM_entry_value 1] $edi
	notl	%edi
	.loc	50 20 12 is_stmt 0              ## simd_os_ws5.cpp:20:12
	popcntl	%edi, %eax
	.loc	50 20 5                         ## simd_os_ws5.cpp:20:5
	popq	%rbp
	retq
Ltmp22:
Lfunc_end1:
	.cfi_endproc
                                        ## -- End function
	.section	__TEXT,__literal8,8byte_literals
	.p2align	3                               ## -- Begin function main
LCPI2_0:
	.quad	0x408f400000000000              ## double 1000
LCPI2_1:
	.quad	0x412e848000000000              ## double 1.0E+6
	.section	__TEXT,__text,regular,pure_instructions
	.globl	_main
	.p2align	4, 0x90
_main:                                  ## @main
Lfunc_begin2:
	.loc	50 24 0 is_stmt 1               ## simd_os_ws5.cpp:24:0
	.cfi_startproc
## %bb.0:
	##DEBUG_VALUE: main:argc <- $edi
	##DEBUG_VALUE: main:argv <- $rsi
	pushq	%rbp
	.cfi_def_cfa_offset 16
	.cfi_offset %rbp, -16
	movq	%rsp, %rbp
	.cfi_def_cfa_register %rbp
Ltmp23:
	pushq	%r14
	pushq	%rbx
	.cfi_offset %rbx, -32
	.cfi_offset %r14, -24
	.loc	50 25 19 prologue_end           ## simd_os_ws5.cpp:25:19
	leaq	L_.str(%rip), %rdi
Ltmp24:
	##DEBUG_VALUE: main:argc <- [DW_OP_LLVM_entry_value 1] $edi
	leaq	L_.str.1(%rip), %rsi
Ltmp25:
	##DEBUG_VALUE: main:argv <- [DW_OP_LLVM_entry_value 1] $rsi
	callq	_fopen
Ltmp26:
	movq	%rax, %r14
Ltmp27:
	##DEBUG_VALUE: main:filters <- undef
	##DEBUG_VALUE: main:outputs <- undef
	##DEBUG_VALUE: main:inputs <- undef
	##DEBUG_VALUE: main:out_width <- 225
	##DEBUG_VALUE: main:out_height <- 225
	##DEBUG_VALUE: main:f_block <- 1
	##DEBUG_VALUE: main:d_block <- 1
	##DEBUG_VALUE: main:w_block <- 1
	##DEBUG_VALUE: main:h_block <- 1
	##DEBUG_VALUE: main:strides <- 1
	##DEBUG_VALUE: main:padding <- 2
	##DEBUG_VALUE: main:filter_width <- 4
	##DEBUG_VALUE: main:filter_height <- 4
	##DEBUG_VALUE: main:num_filters <- 32
	##DEBUG_VALUE: main:depth <- 1
	##DEBUG_VALUE: main:width <- 224
	##DEBUG_VALUE: main:height <- 224
	##DEBUG_VALUE: main:layer_counter <- 0
	##DEBUG_VALUE: main:pFile <- $r14
	.loc	50 72 15                        ## simd_os_ws5.cpp:72:15
	callq	_clock
Ltmp28:
	movq	%rax, %rbx
Ltmp29:
	##DEBUG_VALUE: main:filter <- undef
	##DEBUG_VALUE: main:c_start <- $rbx
	.loc	50 231 13                       ## simd_os_ws5.cpp:231:13
	callq	_clock
Ltmp30:
	##DEBUG_VALUE: main:c_end <- $rax
	.loc	50 232 39                       ## simd_os_ws5.cpp:232:39
	subq	%rbx, %rax
Ltmp31:
	.loc	50 232 32 is_stmt 0             ## simd_os_ws5.cpp:232:32
	vcvtusi2sd	%rax, %xmm0, %xmm0
	.loc	50 232 30                       ## simd_os_ws5.cpp:232:30
	vmulsd	LCPI2_0(%rip), %xmm0, %xmm0
	.loc	50 232 50                       ## simd_os_ws5.cpp:232:50
	vdivsd	LCPI2_1(%rip), %xmm0, %xmm0
Ltmp32:
	##DEBUG_VALUE: main:time_elapsed_ms <- $xmm0
	.loc	50 233 5 is_stmt 1              ## simd_os_ws5.cpp:233:5
	leaq	L_.str.2(%rip), %rsi
	movq	%r14, %rdi
	movb	$1, %al
	callq	_fprintf
Ltmp33:
	.loc	50 238 1                        ## simd_os_ws5.cpp:238:1
	xorl	%eax, %eax
	popq	%rbx
Ltmp34:
	popq	%r14
Ltmp35:
	popq	%rbp
	retq
Ltmp36:
Lfunc_end2:
	.cfi_endproc
                                        ## -- End function
	.section	__TEXT,__cstring,cstring_literals
L_.str:                                 ## @.str
	.asciz	"durations/simd_os_ws5.txt"

L_.str.1:                               ## @.str.1
	.asciz	"a"

L_.str.2:                               ## @.str.2
	.asciz	"%lf\n"
